target datalayout = "e-m:e-p270:32:32-p271:32:32-p272:64:64-i64:64-i128:128-f80:128-n8:16:32:64-S128"
target triple = "x86_64-pc-linux-gnu"

%class.b3Vector3 = type { %union.anon }
%union.anon = type { [4 x float] }
%struct.b3DynamicBvh = type { ptr, ptr, i32, i32, i32, [4 x i8], %class.b3AlignedObjectArray, %class.b3AlignedObjectArray.0 }
%class.b3AlignedObjectArray = type <{ [4 x i8], i32, i32, [4 x i8], ptr, i8, [7 x i8] }>
%class.b3AlignedObjectArray.0 = type <{ [4 x i8], i32, i32, [4 x i8], ptr, i8, [7 x i8] }>
%struct.b3DbvtNode = type { %struct.b3DbvtAabbMm, ptr, %union.anon.4, [8 x i8] }
%struct.b3DbvtAabbMm = type { %class.b3Vector3, %class.b3Vector3 }
%union.anon.4 = type { [2 x ptr] }

; Function Attrs: mustprogress uwtable
define dso_local void @_ZN12b3DynamicBvh6updateEP10b3DbvtNodei(ptr noundef nonnull align 8 dereferenceable(96) %0, ptr noundef %1, i32 noundef %2) #0 align 2 {
  %4 = alloca ptr, align 8
  %5 = alloca ptr, align 8
  %6 = alloca i32, align 4
  %7 = alloca ptr, align 8
  %8 = alloca i32, align 4
  store ptr %0, ptr %4, align 8, !tbaa !4
  store ptr %1, ptr %5, align 8, !tbaa !28
  store i32 %2, ptr %6, align 4, !tbaa !32
  %9 = load ptr, ptr %4, align 8
  call void @llvm.lifetime.start.p0(i64 8, ptr %7) #12
  %10 = load ptr, ptr %5, align 8, !tbaa !28
  %11 = call noundef ptr @_ZL12b3RemoveLeafP12b3DynamicBvhP10b3DbvtNode(ptr noundef %9, ptr noundef %10)
  store ptr %11, ptr %7, align 8, !tbaa !28
  %12 = load ptr, ptr %7, align 8, !tbaa !28
  %13 = icmp ne ptr %12, null
  br i1 %13, label %14, label %42

14:                                               ; preds = %3
  %15 = load i32, ptr %6, align 4, !tbaa !32
  %16 = icmp sge i32 %15, 0
  br i1 %16, label %17, label %38

17:                                               ; preds = %14
  call void @llvm.lifetime.start.p0(i64 4, ptr %8) #12
  store i32 0, ptr %8, align 4, !tbaa !32
  br label %18

18:                                               ; preds = %34, %17
  %19 = load i32, ptr %8, align 4, !tbaa !32
  %20 = load i32, ptr %6, align 4, !tbaa !32
  %21 = icmp slt i32 %19, %20
  br i1 %21, label %22, label %27

22:                                               ; preds = %18
  %23 = load ptr, ptr %7, align 8, !tbaa !28
  %24 = getelementptr inbounds nuw %struct.b3DbvtNode, ptr %23, i32 0, i32 1
  %25 = load ptr, ptr %24, align 16, !tbaa !45
  %26 = icmp ne ptr %25, null
  br label %27

27:                                               ; preds = %22, %18
  %28 = phi i1 [ false, %18 ], [ %26, %22 ]
  br i1 %28, label %30, label %29

29:                                               ; preds = %27
  call void @llvm.lifetime.end.p0(i64 4, ptr %8) #12
  br label %37

30:                                               ; preds = %27
  %31 = load ptr, ptr %7, align 8, !tbaa !28
  %32 = getelementptr inbounds nuw %struct.b3DbvtNode, ptr %31, i32 0, i32 1
  %33 = load ptr, ptr %32, align 16, !tbaa !45
  store ptr %33, ptr %7, align 8, !tbaa !28
  br label %34

34:                                               ; preds = %30
  %35 = load i32, ptr %8, align 4, !tbaa !32
  %36 = add nsw i32 %35, 1
  store i32 %36, ptr %8, align 4, !tbaa !32
  br label %18, !llvm.loop !56

37:                                               ; preds = %29
  br label %41

38:                                               ; preds = %14
  %39 = getelementptr inbounds nuw %struct.b3DynamicBvh, ptr %9, i32 0, i32 0
  %40 = load ptr, ptr %39, align 8, !tbaa !9
  store ptr %40, ptr %7, align 8, !tbaa !28
  br label %41

41:                                               ; preds = %38, %37
  br label %42

42:                                               ; preds = %41, %3
  %43 = load ptr, ptr %7, align 8, !tbaa !28
  %44 = load ptr, ptr %5, align 8, !tbaa !28
  call void @_ZL12b3InsertLeafP12b3DynamicBvhP10b3DbvtNodeS2_(ptr noundef %9, ptr noundef %43, ptr noundef %44)
  call void @llvm.lifetime.end.p0(i64 8, ptr %7) #12
  ret void
}