; Function Attrs: mustprogress uwtable
define dso_local void @_ZN12b3DynamicBvh6updateEP10b3DbvtNodei(ptr noundef nonnull align 8 captures(none) dereferenceable(96) %0, ptr noundef %1, i32 noundef %2) local_unnamed_addr #2 align 2 {
  %4 = tail call fastcc noundef ptr @_ZL12b3RemoveLeafP12b3DynamicBvhP10b3DbvtNode(ptr noundef %0, ptr noundef %1)
  %.not = icmp eq ptr %4, null
  br i1 %.not, label %.critedge, label %5

5:                                                ; preds = %3
  %6 = icmp sgt i32 %2, -1
  br i1 %6, label %.preheader, label %11

.preheader:                                       ; preds = %5
  %.not20 = icmp eq i32 %2, 0
  br i1 %.not20, label %.critedge, label %.lr.ph

7:                                                ; preds = %.lr.ph
  %8 = add nuw nsw i32 %.017, 1
  %exitcond.not = icmp eq i32 %8, %2
  br i1 %exitcond.not, label %.critedge, label %.lr.ph, !llvm.loop !70

.lr.ph:                                           ; preds = %.preheader, %7
  %.017 = phi i32 [ %8, %7 ], [ 0, %.preheader ]
  %.116 = phi ptr [ %10, %7 ], [ %4, %.preheader ]
  %9 = getelementptr inbounds nuw i8, ptr %.116, i64 32
  %10 = load ptr, ptr %9, align 16, !tbaa !46
  %.not15 = icmp eq ptr %10, null
  br i1 %.not15, label %.critedge, label %7

11:                                               ; preds = %5
  %12 = load ptr, ptr %0, align 8, !tbaa !28
  br label %.critedge

.critedge:                                        ; preds = %7, %.lr.ph, %.preheader, %11, %3
  %.010 = phi ptr [ %12, %11 ], [ null, %3 ], [ %4, %.preheader ], [ %10, %7 ], [ %.116, %.lr.ph ]
  tail call fastcc void @_ZL12b3InsertLeafP12b3DynamicBvhP10b3DbvtNodeS2_(ptr noundef %0, ptr noundef %.010, ptr noundef %1)
  ret void
}